(dp0
S'obsesi\xc3\xb3n'
p1
F2.78
sS'blasfemia'
p2
F2.79
sS'sentimiento'
p3
F7.36
sS'botella'
p4
F5.1
sS'considerado'
p5
F6.99
sS'codo'
p6
F4.59
sS'ignorancia'
p7
F2.0
sS'inseguro'
p8
F2.18
sS'nutrir'
p9
F6.3
sS'fuego'
p10
F5.0
sS'correo'
p11
F6.43
sS'ciudad'
p12
F5.66
sS'h\xc3\xa1bito'
p13
F4.84
sS'moneda'
p14
F6.01
sS'perverso'
p15
F2.59
sS'amabilidad'
p16
F8.22
sS'leche'
p17
F5.83
sS'jarra'
p18
F4.81
sS'sue\xc3\xb1o'
p19
F6.6
sS'astronauta'
p20
F5.67
sS'chaleco'
p21
F4.92
sS'man\xc3\xadaco'
p22
F1.88
sS'pobreza'
p23
F1.54
sS'inundaci\xc3\xb3n'
p24
F1.99
sS'seno'
p25
F5.81
sS'pantano'
p26
F3.97
sS'suave'
p27
F7.04
sS'turbio'
p28
F2.81
sS'cuadrado'
p29
F4.87
sS'\xc3\xa1ngel'
p30
F6.87
sS'anhelo'
p31
F4.42
sS'radiador'
p32
F5.5
sS'avi\xc3\xb3n'
p33
F6.13
sS'hermano'
p34
F7.81
sS'revuelta'
p35
F3.23
sS'ladr\xc3\xb3n'
p36
F1.93
sS'libertad'
p37
F8.54
sS'desertor'
p38
F3.38
sS'tortura'
p39
F1.24
sS'florecer'
p40
F7.49
sS'perezoso'
p41
F3.62
sS'victimismo'
p42
F2.48
sS'aurora'
p43
F7.29
sS'agua'
p44
F7.47
sS'risa'
p45
F8.34
sS'hast\xc3\xado'
p46
F2.46
sS'loter\xc3\xada'
p47
F6.98
sS'bestia'
p48
F2.8
sS'fantas\xc3\xada'
p49
F7.39
sS'prenda'
p50
F5.88
sS'riqueza'
p51
F7.04
sS'lloriqueo'
p52
F2.22
sS'cerdo'
p53
F3.71
sS'pueblo'
p54
F6.52
sS'chantaje'
p55
F2.13
sS'reptil'
p56
F3.41
sS'salvador'
p57
F6.89
sS'cable'
p58
F4.53
sS'criatura'
p59
F5.93
sS'cumplea\xc3\xb1os'
p60
F7.54
sS'conocimiento'
p61
F7.73
sS'euf\xc3\xb3rico'
p62
F6.8
sS'decepcionar'
p63
F1.57
sS'vacaci\xc3\xb3n'
p64
F8.52
sS'liso'
p65
F5.4
sS'radio'
p66
F6.29
sS'ocaso'
p67
F6.39
sS'caramelo'
p68
F7.33
sS'magdalena'
p69
F6.27
sS'avalancha'
p70
F2.46
sS'travesura'
p71
F6.03
sS'noticias'
p72
F5.16
sS'bandera'
p73
F4.92
sS'n\xc3\xa9ctar'
p74
F6.1
sS'rata'
p75
F2.67
sS'tolerante'
p76
F7.66
sS'saludo'
p77
F6.86
sS'c\xc3\xa9sped'
p78
F6.31
sS'est\xc3\xb3mago'
p79
F4.39
sS'belleza'
p80
F7.47
sS'reina'
p81
F4.91
sS'rescate'
p82
F7.27
sS'negligencia'
p83
F1.88
sS'g\xc3\xa9rmenes'
p84
F1.78
sS'molestar'
p85
F2.33
sS'vampiro'
p86
F3.49
sS'indiferente'
p87
F3.98
sS'diamante'
p88
F6.69
sS'planta'
p89
F6.46
sS'ej\xc3\xa9rcito'
p90
F2.49
sS'm\xc3\xa9todo'
p91
F5.07
sS'impotente'
p92
F1.98
sS'playa'
p93
F8.07
sS'musculoso'
p94
F5.04
sS'pecado'
p95
F3.92
sS'ropa'
p96
F6.69
sS'en\xc3\xa9rgico'
p97
F7.16
sS'enfermedad'
p98
F1.51
sS'salud  '
p99
F7.74
sS'r\xc3\xa1pido'
p100
F5.71
sS'lepra'
p101
F1.42
sS'fr\xc3\xado'
p102
F3.21
sS'nene'
p103
F7.36
sS'mu\xc3\xb1eca'
p104
F6.24
sS'funeral'
p105
F1.48
sS'bulto'
p106
F3.1
sS'festivo'
p107
F7.97
sS'tenue'
p108
F5.23
sS'sexo'
p109
F7.76
sS'brillante'
p110
F7.03
sS'espuma'
p111
F6.47
sS'estatua'
p112
F5.32
sS'dedicado'
p113
F6.51
sS'boda'
p114
F6.87
sS'linterna'
p115
F5.11
sS'monja'
p116
F3.79
sS'despedazar'
p117
F2.52
sS'sociable'
p118
F7.56
sS'nervioso'
p119
F3.26
sS'jard\xc3\xadn'
p120
F7.99
sS'ca\xc3\xb1\xc3\xb3n'
p121
F2.74
sS'patente'
p122
F4.77
sS'concentrado'
p123
F6.12
sS'casino'
p124
F4.84
sS'culpa'
p125
F2.09
sS'vencedor'
p126
F7.39
sS'brutal'
p127
F1.9
sS'mosquito'
p128
F2.54
sS'perdedor'
p129
F2.1
sS'retrasado'
p130
F2.84
sS'dolencia'
p131
F1.83
sS'nadador'
p132
F5.92
sS'\xc3\xa1rbol'
p133
F6.53
sS'refrigerio'
p134
F5.18
sS'honor'
p135
F7.36
sS'masacre'
p136
F1.32
sS'agresi\xc3\xb3n'
p137
F1.67
sS'erudito'
p138
F5.83
sS'patriota'
p139
F4.91
sS'tierno'
p140
F7.91
sS'masturbarse'
p141
F5.79
sS'libro'
p142
F6.42
sS'curar'
p143
F7.66
sS'asqueado'
p144
F1.81
sS'pasi\xc3\xb3n'
p145
F7.84
sS't\xc3\xadmido'
p146
F4.17
sS'destruir'
p147
F2.09
sS'incomodidad'
p148
F2.16
sS'l\xc3\xa1mpara'
p149
F5.42
sS'fracaso'
p150
F1.64
sS'pervertido'
p151
F1.96
sS'precipicio'
p152
F2.6
sS'corte'
p153
F2.88
sS'crisis'
p154
F1.88
sS'tranquilo'
p155
F6.86
sS'desagrado'
p156
F2.21
sS'piojos'
p157
F1.9
sS'furcia'
p158
F2.66
sS'bast\xc3\xb3n'
p159
F3.83
sS'hospital'
p160
F2.07
sS'esp\xc3\xadritu'
p161
F5.51
sS'intruso'
p162
F2.36
sS'horquilla'
p163
F5.11
sS'tela'
p164
F5.11
sS'curioso'
p165
F5.62
sS'manso'
p166
F5.9
sS'imparcial'
p167
F4.68
sS'torre'
p168
F5.16
sS'sexy'
p169
F7.33
sS'prestigio'
p170
F7.17
sS'mejorar'
p171
F7.46
sS'arma'
p172
F1.81
sS'brisa'
p173
F7.31
sS'contaminar'
p174
F1.58
sS'pasta'
p175
F6.22
sS'chocolate'
p176
F7.72
sS'c\xc3\xadrculo'
p177
F4.82
sS'virtud'
p178
F7.27
sS'excusa'
p179
F3.14
sS'dentista'
p180
F3.0
sS'muleta'
p181
F2.87
sS'gatito'
p182
F6.96
sS'orgulloso'
p183
F5.53
sS'detalle'
p184
F6.33
sS'coito'
p185
F7.26
sS'detestar'
p186
F2.18
sS'amigable'
p187
F8.14
sS'vacilar'
p188
F3.83
sS'esfera'
p189
F5.27
sS'esperanza'
p190
F8.11
sS'serpiente'
p191
F3.07
sS'lavabo'
p192
F4.72
sS'cocinero'
p193
F5.99
sS'in\xc3\xbatil'
p194
F2.09
sS'triste'
p195
F2.0
sS'vestido'
p196
F6.32
sS'penoso'
p197
F2.13
sS'heridas'
p198
F2.07
sS'gloria'
p199
F6.9
sS'respetuoso'
p200
F7.63
sS'desvestido'
p201
F5.12
sS'casita'
p202
F6.69
sS'hombre'
p203
F6.91
sS'coraz\xc3\xb3n'
p204
F6.64
sS'alba'
p205
F7.48
sS'tibur\xc3\xb3n'
p206
F3.07
sS'novio'
p207
F7.49
sS'loco'
p208
F3.41
sS'delicado'
p209
F5.64
sS'azul'
p210
F7.01
sS'electrodom\xc3\xa9stico'
p211
F5.1
sS'foll\xc3\xb3n'
p212
F2.62
sS'gordo'
p213
F3.56
sS'd\xc3\xados'
p214
F5.59
sS'tonto'
p215
F3.3
sS'r\xc3\xado'
p216
F7.03
sS'ingenio'
p217
F7.34
sS'cachorro'
p218
F7.21
sS'cielo'
p219
F7.56
sS'homicida'
p220
F1.68
sS'recompensa'
p221
F7.6
sS'nieve'
p222
F7.0
sS'lluvia'
p223
F4.52
sS'litro'
p224
F5.07
sS'carro\xc3\xb1a'
p225
F2.08
sS'desd\xc3\xa9n'
p226
F3.08
sS'rubio'
p227
F5.28
sS'gato'
p228
F6.13
sS'gimnasta'
p229
F5.91
sS'nubes'
p230
F6.37
sS'paloma'
p231
F6.32
sS'maestro'
p232
F5.5
sS'nombre'
p233
F5.72
sS'adicto'
p234
F2.41
sS'avergonzado'
p235
F2.51
sS'opci\xc3\xb3n'
p236
F6.08
sS'horror'
p237
F1.68
sS'pizza'
p238
F7.07
sS'aterrorizado'
p239
F1.96
sS'crucificar'
p240
F1.87
sS'burla'
p241
F2.2
sS'amanecer'
p242
F8.01
sS'faro'
p243
F5.48
sS'sobresaltado'
p244
F4.01
sS'pinchazo'
p245
F2.18
sS'alegre'
p246
F8.41
sS'deslumbramiento'
p247
F4.38
sS'asqueroso'
p248
F1.86
sS'edificio'
p249
F4.97
sS'calidad'
p250
F6.78
sS'seda'
p251
F6.73
sS'regalo'
p252
F7.91
sS'ciempi\xc3\xa9s'
p253
F4.12
sS'mesa'
p254
F4.8
sS'sabio'
p255
F7.14
sS'coqueto'
p256
F5.79
sS'relajado'
p257
F7.53
sS'crepe'
p258
F6.88
sS'padre'
p259
F7.0
sS'inspirar'
p260
F7.17
sS'caos'
p261
F2.0
sS'corona'
p262
F5.21
sS'naturaleza'
p263
F8.03
sS'resentirse'
p264
F2.29
sS'granja'
p265
F5.53
sS'disturbio'
p266
F2.57
sS'cascada'
p267
F7.2
sS'caricia'
p268
F8.27
sS'l\xc3\xa1piz'
p269
F4.98
sS'santo'
p270
F4.87
sS'reloj'
p271
F4.96
sS'temeroso'
p272
F2.67
sS'escopeta'
p273
F2.32
sS'manera'
p274
F5.0
sS'engre\xc3\xaddo'
p275
F2.16
sS'cortes\xc3\xada'
p276
F6.92
sS'maravilla'
p277
F7.96
sS'llave'
p278
F5.57
sS'amable'
p279
F7.81
sS'devoto'
p280
F4.22
sS'tobog\xc3\xa1n'
p281
F6.54
sS'bombilla'
p282
F5.29
sS'porquer\xc3\xada'
p283
F1.66
sS'modesto'
p284
F6.31
sS'recuerdos'
p285
F6.96
sS'abundancia'
p286
F6.8
sS'f\xc3\xa9tido'
p287
F2.14
sS'paraguas'
p288
F4.27
sS'ri\xc3\xb1a'
p289
F2.16
sS'comedia'
p290
F7.71
sS'monta\xc3\xb1a'
p291
F6.49
sS'par\xc3\xa1lisis'
p292
F1.33
sS'vigoroso'
p293
F5.99
sS'repisa'
p294
F4.73
sS'triunfante'
p295
F7.51
sS'canci\xc3\xb3n'
p296
F8.01
sS'maleducado'
p297
F2.21
sS'demente'
p298
F2.27
sS'chiflado'
p299
F4.03
sS'madre'
p300
F8.19
sS'traicionar'
p301
F1.58
sS'pene'
p302
F5.93
sS'pasillo'
p303
F4.37
sS'museo'
p304
F6.26
sS'pena'
p305
F1.6
sS'puerta'
p306
F5.07
sS'fofo'
p307
F3.01
sS'oficina'
p308
F4.09
sS'inquieto'
p309
F4.47
sS'criminal'
p310
F1.77
sS'tragedia'
p311
F1.64
sS'progreso'
p312
F7.29
sS'adinerado'
p313
F6.21
sS'fragancia'
p314
F7.76
sS'cari\xc3\xb1oso'
p315
F8.41
sS'putrefacto'
p316
F1.64
sS'spray'
p317
F4.17
sS'arrepentido'
p318
F4.5
sS'material'
p319
F5.01
sS'fiesta'
p320
F8.26
sS'fascinar'
p321
F7.42
sS'novia'
p322
F6.63
sS'cucaracha'
p323
F2.57
sS'lento'
p324
F3.71
sS'asesinar'
p325
F1.18
sS'fuerte'
p326
F6.3
sS'dedo'
p327
F4.86
sS'bar'
p328
F6.53
sS'cad\xc3\xa1ver'
p329
F1.41
sS'afortunado'
p330
F7.71
sS'desastre'
p331
F1.6
sS'velero'
p332
F6.41
sS'aplastado'
p333
F2.28
sS'pellizco'
p334
F3.17
sS'saludar'
p335
F6.61
sS'lesi\xc3\xb3n'
p336
F1.92
sS'lesbiana'
p337
F5.37
sS'vergonzoso'
p338
F3.14
sS'valiente'
p339
F7.49
sS'simp\xc3\xa1tico'
p340
F7.94
sS'exquisito'
p341
F7.44
sS'violaci\xc3\xb3n'
p342
F1.11
sS'restaurante'
p343
F6.72
sS'mendigo'
p344
F2.92
sS'temperamental'
p345
F4.27
sS'enamorado'
p346
F8.33
sS'roca'
p347
F4.92
sS'acontecimiento'
p348
F5.99
sS'tabaco'
p349
F3.18
sS'bueno'
p350
F7.92
sS'liga'
p351
F5.38
sS'podrido'
p352
F1.91
sS'silbato'
p353
F4.21
sS'predominante'
p354
F4.7
sS'idea'
p355
F7.36
sS'esc\xc3\xa9ptico'
p356
F4.22
sS'soso'
p357
F2.49
sS'zafiro'
p358
F6.71
sS'crimen'
p359
F1.64
sS'br\xc3\xado'
p360
F5.78
sS'puntapi\xc3\xa9'
p361
F3.24
sS'bofetada'
p362
F2.06
sS'molestia'
p363
F2.17
sS'ejercicio'
p364
F5.7
sS'rey'
p365
F4.98
sS'depresi\xc3\xb3n'
p366
F1.56
sS'grito'
p367
F3.39
sS'teor\xc3\xada'
p368
F4.59
sS'consigna'
p369
F4.79
sS'ganar'
p370
F7.84
sS'veh\xc3\xadculo'
p371
F6.33
sS'hermoso'
p372
F7.61
sS'odiar'
p373
F1.86
sS'trauma'
p374
F1.66
sS'perro'
p375
F6.5
sS'generoso'
p376
F7.57
sS'medicina'
p377
F5.38
sS'soga'
p378
F2.01
sS'navidad'
p379
F6.69
sS'p\xc3\xb3ster'
p380
F5.49
sS'maniqu\xc3\xad'
p381
F4.38
sS'ordenador'
p382
F5.5
sS'herramienta'
p383
F4.58
sS'mariquita'
p384
F5.8
sS'oro'
p385
F6.68
sS'abejas'
p386
F3.18
sS'ca\xc3\xadda'
p387
F2.26
sS'entrometido'
p388
F2.72
sS'cara'
p389
F6.02
sS'pus'
p390
F1.7
sS'asiento'
p391
F5.7
sS'rabia'
p392
F2.33
sS'suburbio'
p393
F2.5
sS'sabor'
p394
F6.88
sS'prisi\xc3\xb3n'
p395
F1.98
sS'soleado'
p396
F8.14
sS'sorprendido'
p397
F6.29
sS'desnudo'
p398
F5.48
sS'aprobaci\xc3\xb3n'
p399
F7.11
sS'terrible'
p400
F1.49
sS'deuda'
p401
F1.92
sS'admirado'
p402
F7.33
sS'veloz'
p403
F5.99
sS'bancarrota'
p404
F1.63
sS'pesaroso'
p405
F2.86
sS'martillo'
p406
F4.38
sS'despreciar'
p407
F1.98
sS'maletero'
p408
F4.21
sS'vigilante'
p409
F4.83
sS'v\xc3\xb3mito'
p410
F1.76
sS'gente'
p411
F6.53
sS'rana'
p412
F4.23
sS'extraordinario'
p413
F7.37
sS'confuso'
p414
F2.78
sS'f\xc3\xa1cil'
p415
F6.92
sS'capricho'
p416
F5.92
sS'excelencia'
p417
F6.01
sS'desperdicio'
p418
F2.7
sS'carro'
p419
F4.53
sS'milagro'
p420
F6.84
sS'orgasmo'
p421
F8.06
sS'desventaja'
p422
F2.34
sS'virgen'
p423
F4.66
sS'pradera'
p424
F7.49
sS'nevera'
p425
F5.44
sS'alcoh\xc3\xb3lico'
p426
F2.01
sS'avenida'
p427
F4.86
sS'\xc3\xa9xtasis'
p428
F4.76
sS'd\xc3\xb3lar'
p429
F5.68
sS'fam\xc3\xa9lico'
p430
F2.12
sS'miseria'
p431
F1.47
sS'amenaza'
p432
F1.99
sS'manosear'
p433
F3.99
sS'aire'
p434
F6.83
sS'taburete'
p435
F4.79
sS'golfista'
p436
F4.43
sS'elegante'
p437
F7.23
sS'vagina'
p438
F5.0
sS'disgustado'
p439
F2.19
sS'capaz'
p440
F7.52
sS'circo'
p441
F6.2
sS'pancarta'
p442
F5.49
sS'culpable'
p443
F2.36
sS'cotilleo'
p444
F4.19
sS'guarder\xc3\xada'
p445
F6.59
sS'justicia'
p446
F7.0
sS'mermelada'
p447
F5.93
sS'muerto'
p448
F1.17
sS'ventaja'
p449
F6.9
sS'falso '
p450
F1.73
sS'malvado'
p451
F1.8
sS'angustiado'
p452
F1.67
sS'pez\xc3\xb3n'
p453
F6.14
sS'negro'
p454
F4.87
sS'reh\xc3\xa9n'
p455
F1.74
sS'buceador'
p456
F5.52
sS'rifle'
p457
F1.92
sS'natural'
p458
F7.17
sS'manguera'
p459
F5.26
sS'primavera'
p460
F7.53
sS'invasor'
p461
F2.52
sS'sobrecogido'
p462
F3.0
sS'campe\xc3\xb3n'
p463
F7.29
sS'obesidad'
p464
F2.28
sS'aguja'
p465
F3.18
sS'tobillo'
p466
F4.6
sS'maltrato'
p467
F1.39
sS'silla'
p468
F5.03
sS'basura'
p469
F2.06
sS'inter\xc3\xa9s'
p470
F6.57
sS'solemne'
p471
F4.58
sS'recado'
p472
F4.43
sS'opini\xc3\xb3n'
p473
F6.34
sS'historia'
p474
F5.37
sS'esquina'
p475
F4.47
sS'magistral'
p476
F6.34
sS'indefenso'
p477
F1.89
sS'oto\xc3\xb1o'
p478
F5.17
sS'odio'
p479
F1.74
sS'rev\xc3\xb3lver'
p480
F2.13
sS'almohada'
p481
F6.79
sS'ni\xc3\xb1o'
p482
F7.34
sS'armario'
p483
F5.1
sS'recogedor'
p484
F4.22
sS'morboso'
p485
F4.29
sS'ara\xc3\xb1a'
p486
F3.07
sS'ahorrar'
p487
F6.4
sS'corredor'
p488
F4.08
sS'guapo'
p489
F7.79
sS'tarta'
p490
F7.26
sS'vaca'
p491
F5.41
sS'aburrido'
p492
F2.33
sS'guapa'
p493
F7.22
sS'incentivo'
p494
F7.39
sS'blanco'
p495
F6.1
sS'guillotina'
p496
F1.87
sS'hambriento'
p497
F3.12
sS'peligro'
p498
F2.02
sS'abrasador'
p499
F2.46
sS'frustrado'
p500
F1.88
sS'inmaduro'
p501
F3.18
sS'snob'
p502
F3.14
sS'l\xc3\xa1nguido'
p503
F3.0
sS'gangrena'
p504
F1.68
sS'enga\xc3\xb1o'
p505
F1.89
sS'hotel'
p506
F6.39
sS'empleo'
p507
F6.34
sS'escorbuto'
p508
F2.22
sS'ruidoso'
p509
F2.63
sS'tornado'
p510
F2.24
sS'l\xc3\xadder'
p511
F5.47
sS'peste'
p512
F1.53
sS'pareja'
p513
F7.91
sS'fraude'
p514
F1.86
sS'tonter\xc3\xada'
p515
F4.19
sS'g\xc3\xa9nero'
p516
F4.87
sS'choque'
p517
F2.01
sS'grave'
p518
F1.89
sS'miel'
p519
F5.46
sS'raro'
p520
F4.24
sS'rancio'
p521
F2.41
sS'tinta'
p522
F4.62
sS'digno'
p523
F7.0
sS'flor'
p524
F7.34
sS'convencido'
p525
F6.51
sS'agilidad'
p526
F6.73
sS'metal'
p527
F4.98
sS'molde'
p528
F4.76
sS'hornear'
p529
F5.47
sS'graduado'
p530
F7.09
sS'dolor'
p531
F1.61
sS'corrupto'
p532
F2.08
sS'desde\xc3\xb1oso'
p533
F2.66
sS'taxi'
p534
F4.64
sS'g\xc3\xa9lido'
p535
F3.28
sS'cirug\xc3\xada'
p536
F3.08
sS'miedoso'
p537
F2.57
sS'corcho'
p538
F4.93
sS'costumbre'
p539
F5.43
sS'folleto'
p540
F4.79
sS'mercado'
p541
F5.41
sS'aventura'
p542
F7.76
sS'insecto'
p543
F3.24
sS'cortina'
p544
F4.79
sS'm\xc3\xa1quina'
p545
F4.44
sS'p\xc3\xa1jaro'
p546
F6.43
sS'fatigado'
p547
F2.61
sS'idiota'
p548
F2.56
sS'est\xc3\xbapido'
p549
F2.6
sS'columna'
p550
F4.71
sS'mascota'
p551
F7.33
sS'asustado'
p552
F2.54
sS'torpe'
p553
F3.09
sS'libre'
p554
F8.28
sS'narc\xc3\xb3tico'
p555
F2.92
sS'tonada'
p556
F5.0
sS'deseo'
p557
F7.98
sS'inferior'
p558
F2.5
sS'espina'
p559
F2.64
sS'escritor'
p560
F6.47
sS'ventana'
p561
F5.88
sS'sustento'
p562
F5.49
sS'hamburguesa'
p563
F5.78
sS'estrella'
p564
F7.52
sS'infiel'
p565
F1.7
sS'joven'
p566
F7.71
sS'flem\xc3\xb3n'
p567
F1.96
sS'solo'
p568
F2.76
sS'hierro'
p569
F4.44
sS'publicaci\xc3\xb3n'
p570
F5.31
sS'secador'
p571
F5.01
sS'conejo'
p572
F6.18
sS'bomba'
p573
F1.42
sS'c\xc3\xa1rcel'
p574
F1.87
sS'enfadado'
p575
F2.2
sS'ofender'
p576
F2.1
sS'hostil'
p577
F2.2
sS'brazo'
p578
F5.37
sS'ordenado'
p579
F6.57
sS'perfume'
p580
F7.03
sS'oscuro'
p581
F3.71
sS'apuros'
p582
F2.61
sS'bebida'
p583
F6.26
sS'momento'
p584
F6.0
sS'tesoro'
p585
F7.27
sS'tijeras'
p586
F4.18
sS'traves\xc3\xada'
p587
F5.44
sS'farol'
p588
F4.93
sS'perdido'
p589
F2.28
sS'beso'
p590
F8.43
sS'vino'
p591
F4.88
sS'pleito'
p592
F2.81
sS'guerra'
p593
F1.23
sS'agradecido'
p594
F7.84
sS'humano'
p595
F6.67
sS'rom\xc3\xa1ntico'
p596
F7.99
sS'honesto'
p597
F7.52
sS'distante'
p598
F2.73
sS'r\xc3\xadgido'
p599
F3.39
sS'orgullo'
p600
F5.12
sS'confort'
p601
F8.04
sS'iglesia'
p602
F3.77
sS'ment\xc3\xb3n'
p603
F4.67
sS'pastel'
p604
F7.18
sS't\xc3\xb3xico'
p605
F1.77
sS'malaria'
p606
F1.81
sS'contenido'
p607
F5.21
sS'sombrero'
p608
F4.87
sS'deforme'
p609
F2.23
sS'viruela'
p610
F1.77
sS'boxeador'
p611
F3.62
sS'favor'
p612
F6.58
sS'ba\xc3\xb1o'
p613
F7.21
sS'confianza'
p614
F7.78
sS'obsequio'
p615
F7.8
sS'sospechoso'
p616
F3.07
sS'termita'
p617
F3.4
sS'joya'
p618
F6.51
sS'descanso'
p619
F7.52
sS'mueca'
p620
F5.2
sS'rel\xc3\xa1mpago'
p621
F3.98
sS'promoci\xc3\xb3n'
p622
F5.89
sS'mantequilla'
p623
F5.2
sS'herido'
p624
F1.98
sS'dinero'
p625
F7.46
sS'agobiado'
p626
F2.06
sS'excitado'
p627
F6.5
sS'avispa'
p628
F2.54
sS'deleite'
p629
F7.23
sS'rechazado'
p630
F1.94
sS'jovial'
p631
F7.23
sS'c\xc3\xa1ncer'
p632
F1.23
sS'desleal'
p633
F1.74
sS'estr\xc3\xa9s'
p634
F1.83
sS'asediado'
p635
F2.4
sS'sarampi\xc3\xb3n'
p636
F1.84
sS'mariposa'
p637
F6.74
sS'\xc3\xbatil'
p638
F7.24
sS'rascacielos'
p639
F4.73
sS'atrevido'
p640
F6.51
sS'mono'
p641
F5.29
sS'bodega'
p642
F5.23
sS'hurac\xc3\xa1n'
p643
F2.28
sS'inmoral'
p644
F2.86
sS'rojo'
p645
F5.93
sS'tanque'
p646
F2.39
sS'pit\xc3\xb3n'
p647
F2.93
sS'queja'
p648
F2.84
sS'da\xc3\xb1o'
p649
F1.8
sS'p\xc3\xa1nico'
p650
F1.53
sS'comer'
p651
F7.18
sS'irritar'
p652
F1.93
sS'mes'
p653
F5.03
sS'imaginar'
p654
F7.58
sS'color'
p655
F6.77
sS'oc\xc3\xa9ano'
p656
F7.54
sS'identidad'
p657
F6.2
sS'lucha'
p658
F2.4
sS'genial'
p659
F7.98
sS'tormenta'
p660
F4.14
sS'diversi\xc3\xb3n'
p661
F8.32
sS'vencido'
p662
F2.2
sS'cementerio'
p663
F2.06
sS'espantoso'
p664
F2.18
sS'pensamiento'
p665
F5.91
sS'pintura'
p666
F6.2
sS'cansado'
p667
F2.47
sS'paciente'
p668
F4.36
sS'amigo'
p669
F8.41
sS'm\xc3\xbasica'
p670
F8.16
sS'avaricia'
p671
F2.44
sS'caballo'
p672
F6.36
sS'goce'
p673
F8.09
sS'cieno'
p674
F3.77
sS'\xc3\xa9xito'
p675
F7.69
sS'j\xc3\xbabilo'
p676
F7.61
sS'asfixiarse'
p677
F1.48
sS'triunfo'
p678
F7.89
sS'asesino'
p679
F1.23
sS'arte'
p680
F7.09
sS'acre'
p681
F4.23
sS'aguanieve'
p682
F5.11
sS'flexible'
p683
F5.91
sS'agresivo'
p684
F1.96
sS'cena'
p685
F6.58
sS'industria'
p686
F4.21
sS'hero\xc3\xadna'
p687
F3.61
sS'suicidio'
p688
F1.24
sS'fastidiar'
p689
F2.26
sS'trompeta'
p690
F5.19
sS'cesta'
p691
F5.18
sS'l\xc3\xb3brego'
p692
F3.39
sS'coche'
p693
F6.67
sS'volc\xc3\xa1n'
p694
F3.52
sS'consolado'
p695
F5.54
sS'piojo'
p696
F1.97
sS'invitaci\xc3\xb3n'
p697
F7.86
sS'trampol\xc3\xadn'
p698
F5.69
sS'tenso'
p699
F2.73
sS'autob\xc3\xbas'
p700
F4.51
sS'esti\xc3\xa9rcol'
p701
F2.02
sS'casa'
p702
F7.03
sS'multa'
p703
F1.98
sS'estufa'
p704
F6.37
sS'\xc3\xa1nimo'
p705
F7.36
sS'zurra'
p706
F1.96
sS'deportes'
p707
F6.56
sS'ciego'
p708
F2.41
sS'viol\xc3\xadn'
p709
F6.14
sS'contexto'
p710
F5.0
sS'neur\xc3\xb3tico'
p711
F2.57
sS'humillar'
p712
F1.68
sS'error'
p713
F2.62
sS'acuerdo'
p714
F7.24
sS'sombra'
p715
F4.03
sS'activar'
p716
F6.0
sS'millonario'
p717
F6.57
sS'heno'
p718
F5.0
sS'divorcio'
p719
F2.28
sS'hervir'
p720
F4.81
sS'habitante'
p721
F5.91
sS'perfecci\xc3\xb3n'
p722
F6.58
sS'llano'
p723
F5.18
sS'espacio'
p724
F6.3
sS'piel'
p725
F6.19
sS'conejito'
p726
F6.46
sS'celos'
p727
F2.27
sS'lujuria'
p728
F5.43
sS'exterior'
p729
F6.41
sS'fama'
p730
F5.46
sS'yate'
p731
F6.57
sS'suciedad'
p732
F1.98
sS'golpe'
p733
F2.33
sS'parte'
p734
F4.66
sS'doctor'
p735
F4.77
sS'enfurecido'
p736
F2.02
sS'paz'
p737
F8.11
sS'asombrado'
p738
F5.52
sS'bastardo'
p739
F2.89
sS'ramo'
p740
F6.42
sS'juego'
p741
F6.94
sS'obsceno'
p742
F2.51
sS'basto'
p743
F3.07
sS'efectivo'
p744
F6.8
sS'mucosidad'
p745
F2.58
sS'tiempo'
p746
F5.27
sS'persona'
p747
F6.89
sS'memoria'
p748
F6.41
sS'palacio'
p749
F6.91
sS'diploma'
p750
F7.46
sS'bala'
p751
F2.01
sS'ponzo\xc3\xb1a'
p752
F3.39
sS'feo'
p753
F3.08
sS'protegido'
p754
F6.69
sS'arco-iris'
p755
F7.39
sS'tierra'
p756
F5.63
sS'granada'
p757
F3.42
sS'costa'
p758
F7.23
sS'calmar'
p759
F6.6
sS'matanza'
p760
F1.66
sS'campo'
p761
F7.23
sS'acogedor'
p762
F7.64
sS'acurrucarse'
p763
F6.98
sS'dificultar'
p764
F2.21
sS'juventud'
p765
F7.82
sS'pel\xc3\xadcula'
p766
F7.14
sS'cicatriz'
p767
F3.01
sS'sucio'
p768
F1.91
sS'intelecto'
p769
F6.56
sS'harto'
p770
F2.73
sS'mano'
p771
F6.04
sS'firmamento'
p772
F7.79
sS'hedor'
p773
F1.91
sS'lujo'
p774
F6.51
sS'alergia'
p775
F4.01
sS'm\xc3\xadstico'
p776
F5.64
sS'entierro'
p777
F1.36
sS'atracador'
p778
F2.02
sS'term\xc3\xb3metro'
p779
F4.28
sS'defendido'
p780
F6.17
sS'pasaje'
p781
F5.23
sS'vertedero'
p782
F2.2
sS'ascensor'
p783
F4.99
sS'mutilar'
p784
F1.36
sS'chillido'
p785
F2.78
sS'educaci\xc3\xb3n'
p786
F7.07
sS'hongo'
p787
F2.91
sS'venda'
p788
F4.14
sS'papel'
p789
F4.98
sS'humilde'
p790
F6.59
sS's\xc3\xadfilis'
p791
F1.6
sS'inocente'
p792
F6.31
sS'ampolla'
p793
F2.54
sS'quemadura'
p794
F1.76
sS'castigo'
p795
F1.87
sS'insolente'
p796
F2.44
sS'orquesta'
p797
F6.24
sS'vida'
p798
F8.07
sS'aborto'
p799
F2.8
sS'calor'
p800
F5.92
sS'ketchup'
p801
F4.76
sS'olla'
p802
F4.66
sS'vidrio'
p803
F4.64
sS'afligido'
p804
F1.96
sS'fusil'
p805
F2.08
sS'morgue'
p806
F2.71
sS'jaqueca'
p807
F1.58
sS'atrocidad'
p808
F1.74
sS'ambulancia'
p809
F2.34
sS'destrucci\xc3\xb3n'
p810
F1.5
sS'melod\xc3\xada'
p811
F7.71
sS'mareado'
p812
F2.01
sS'rapto'
p813
F1.67
sS'mujer'
p814
F6.4
sS'puta'
p815
F3.24
sS'bailar\xc3\xadn'
p816
F7.14
sS'infecci\xc3\xb3n'
p817
F1.69
sS'licenciado'
p818
F7.56
sS'\xc3\xa1cido'
p819
F3.41
sS'amarillo'
p820
F5.67
sS'esconder'
p821
F3.63
sS'aprender'
p822
F7.13
sS'cuenco'
p823
F5.01
sS'tenedor'
p824
F4.8
sS'ensalada'
p825
F6.12
sS'deprimido'
p826
F1.5
sS'radiante'
p827
F7.43
sS'\xc3\xbalcera'
p828
F1.7
sS'nudo'
p829
F3.96
sS'obedecer'
p830
F3.84
sS'moral'
p831
F6.12
sS'impresionado'
p832
F6.09
sS'violento'
p833
F1.69
sS'pausado'
p834
F5.19
sS'rebelde'
p835
F4.56
sS'chica'
p836
F5.97
sS'desanimado'
p837
F2.16
sS'roto'
p838
F3.02
sS'cobarde'
p839
F2.56
sS'amor'
p840
F8.5
sS'chico'
p841
F7.13
sS'v\xc3\xa1ndalo'
p842
F2.49
sS'ro\xc3\xb1a'
p843
F1.94
sS'b\xc3\xbaho'
p844
F5.92
sS'cr\xc3\xa1neo'
p845
F4.42
sS'motor'
p846
F4.83
sS'solitario'
p847
F2.68
sS'pesar'
p848
F3.04
sS'entusiasmo'
p849
F7.86
sS'enfermo'
p850
F1.61
sS'pieza'
p851
F4.84
sS'privacidad'
p852
F6.08
sS'mutaci\xc3\xb3n'
p853
F3.27
sS'molino'
p854
F5.36
sS'moho'
p855
F2.61
sS'ganancias'
p856
F7.58
sS'satisfecho'
p857
F7.88
sS'ansioso'
p858
F3.63
sS'desenfadado'
p859
F6.26
sS'glaciar'
p860
F5.76
sS'daga'
p861
F3.66
sS'pirotecnia'
p862
F5.06
sS'respuesta'
p863
F5.79
sS'leal'
p864
F7.73
sS'utensilio'
p865
F4.78
sS'sangriento'
p866
F1.42
sS'presi\xc3\xb3n'
p867
F2.7
sS'carta'
p868
F6.79
sS'veneno'
p869
F1.67
sS'adorable'
p870
F7.48
sS'tieso'
p871
F3.68
sS'carretera'
p872
F5.0
sS'az\xc3\xbacar'
p873
F6.68
sS'm\xc3\xa1gico'
p874
F7.17
sS'mugre'
p875
F1.93
sS'aplausos'
p876
F7.67
sS'malicia'
p877
F2.08
sS'pa\xc3\xb1uelo'
p878
F4.33
sS'verdad'
p879
F7.78
sS'respeto'
p880
F7.27
sS'callej\xc3\xb3n'
p881
F3.46
sS'ego\xc3\xadsta'
p882
F2.12
sS'abrumado'
p883
F2.9
sS'para\xc3\xadso'
p884
F8.24
sS'cami\xc3\xb3n'
p885
F4.67
sS'reverente'
p886
F4.59
sS'victoria'
p887
F7.93
sS'cuchillo'
p888
F2.86
sS'barril'
p889
F4.73
sS'esclavo'
p890
F1.62
sS'movilidad'
p891
F7.16
sS'amado'
p892
F7.99
sS'crep\xc3\xbasculo'
p893
F6.32
sS'l\xc3\xa1stima'
p894
F1.79
sS'cicl\xc3\xb3n'
p895
F2.13
sS'afianzar'
p896
F5.93
sS'invertir'
p897
F5.27
sS'tumor'
p898
F1.34
sS'absurdo'
p899
F3.8
sS'champi\xc3\xb1\xc3\xb3n'
p900
F4.88
sS'despreocupado'
p901
F5.07
sS'huevo'
p902
F5.01
sS'gusano'
p903
F2.99
sS'demonio'
p904
F2.91
sS'poderoso'
p905
F5.37
sS'afecto'
p906
F8.1
sS'ejecuci\xc3\xb3n'
p907
F2.48
sS'reservado'
p908
F4.5
sS'v\xc3\xadctima'
p909
F1.74
sS'decorar'
p910
F6.83
sS'sol'
p911
F7.9
sS'enfermera'
p912
F4.83
sS'pistola'
p913
F1.83
sS'le\xc3\xb3n'
p914
F4.98
sS'ahogarse'
p915
F1.32
sS'terrorista'
p916
F1.51
sS'poes\xc3\xada'
p917
F7.23
sS'extraterrestre'
p918
F4.66
sS'chiste'
p919
F7.2
sS'esc\xc3\xa1ndalo'
p920
F3.47
sS'banco'
p921
F5.14
sS'leyenda'
p922
F6.7
sS'esperanzado'
p923
F7.41
sS'trofeo'
p924
F7.3
sS'viajes'
p925
F7.84
sS'barco'
p926
F6.0
sS'abrazo'
p927
F8.13
sS'comida'
p928
F6.77
sS'encanto'
p929
F7.68
sS'lago'
p930
F7.19
sS'abandonado'
p931
F1.68
sS'inspirado'
p932
F7.04
sS'comprometido'
p933
F6.23
sS'ba\xc3\xb1era'
p934
F6.76
sS'unidad'
p935
F5.5
sS'muerte'
p936
F1.23
sS'poder'
p937
F5.73
sS'fase'
p938
F4.82
sS'pescado'
p939
F5.7
sS'dormir'
p940
F7.79
sS'traidor'
p941
F1.53
sS'reuni\xc3\xb3n'
p942
F5.62
sS'esposo'
p943
F6.03
sS'esposa'
p944
F5.61
sS'pesimismo'
p945
F2.06
sS'callado'
p946
F4.03
sS'talento'
p947
F7.44
sS'soledad'
p948
F2.5
sS'glamour'
p949
F5.94
sS'escorpi\xc3\xb3n'
p950
F2.86
sS'verde'
p951
F6.43
sS'familia'
p952
F8.18
sS'\xc3\xadntimo'
p953
F7.46
sS'serio'
p954
F3.8
sS'maquinilla'
p955
F4.22
sS'gui\xc3\xb1o'
p956
F6.93
sS'd\xc3\xa9bil'
p957
F2.56
sS'placer'
p958
F8.48
sS'beb\xc3\xa9'
p959
F7.6
sS'agon\xc3\xada'
p960
F1.74
sS'infeliz'
p961
F1.43
sS'afectar'
p962
F3.48
sS'vivo'
p963
F8.07
sS'cruel'
p964
F1.77
sS'repugnante'
p965
F1.78
sS'c\xc3\xa9lula'
p966
F4.91
sS'queroseno'
p967
F3.19
sS'pesadilla'
p968
F1.8
sS'halc\xc3\xb3n'
p969
F5.29
sS'v\xc3\xadvido'
p970
F5.7
sS'fiebre'
p971
F1.86
sS'estremecerse'
p972
F3.67
sS'duro'
p973
F4.24
sS'reconocido'
p974
F6.11
sS'desesperado'
p975
F2.0
sS'seguro'
p976
F7.48
sS'fortuito'
p977
F5.89
sS'ambici\xc3\xb3n'
p978
F5.01
sS'ata\xc3\xbad'
p979
F1.63
sS'tumba'
p980
F1.74
sS'feliz'
p981
F8.37
sS'pie'
p982
F4.67
sS'mundo'
p983
F6.57
sS'incordio'
p984
F2.29
sS'as'
p985
F6.41
sS'desordenado'
p986
F3.33
sS'pecaminoso'
p987
F3.66
sS'cura'
p988
F4.52
sS'adulto'
p989
F5.68
sS'tablero'
p990
F4.8
sS'sonajero'
p991
F6.06
sS'bendecir'
p992
F5.7
sS'\xc3\xa1tico'
p993
F6.74
sS'menosprecio'
p994
F1.72
sS'er\xc3\xb3tico'
p995
F7.44
sS'arrogante'
p996
F2.07
sS'estancado'
p997
F2.63
sS'vanidad'
p998
F2.83
sS'visi\xc3\xb3n'
p999
F6.82
sS'alerta'
p1000
F3.69
sS'infierno'
p1001
F2.47
sS'temor'
p1002
F1.96
sS'enfado'
p1003
F2.5
sS'grosero'
p1004
F2.22
sS'\xc3\xaddolo'
p1005
F6.29
sS'escoria'
p1006
F1.87
sS'hogar'
p1007
F7.63
sS'jubiloso'
p1008
F7.44
sS'descomposici\xc3\xb3n'
p1009
F1.94
sS'cuerpo'
p1010
F6.02
sS'liberaci\xc3\xb3n'
p1011
F7.97
sS'orina'
p1012
F2.82
sS'insulto'
p1013
F2.33
sS'optimismo'
p1014
F8.31
sS'diablo'
p1015
F2.7
sS'tenis'
p1016
F5.81
sS'humor'
p1017
F7.7
sS'c\xc3\xb3lera'
p1018
F2.11
sS'cama'
p1019
F7.71
sS'problema'
p1020
F1.89
sS'oxidado'
p1021
F3.11
sS'dicha'
p1022
F6.7
sS'mente'
p1023
F6.41
sS'cocina'
p1024
F5.71
sS'logro'
p1025
F8.01
sS'accidente'
p1026
F1.32
sS'juguete'
p1027
F6.72
sS'calle'
p1028
F5.53
sS'cordero'
p1029
F5.38
sS'oportunidad'
p1030
F7.91
sS'famoso'
p1031
F5.18
sS'\xc3\xa1spero'
p1032
F3.27
sS'mentira'
p1033
F1.88
sS'nublado'
p1034
F3.27
s.